; Function Attrs: mustprogress uwtable
define noundef nonnull align 8 dereferenceable(8) ptr @_ZNK8QuantLib15LocalVolSurface13referenceDateEv(ptr noundef nonnull align 8 dereferenceable(136) %this) unnamed_addr #6 align 2 {
entry:
  %blackTS_ = getelementptr inbounds nuw i8, ptr %this, i64 72
  %call = tail call noundef nonnull align 8 dereferenceable(16) ptr @_ZNK8QuantLib6HandleINS_21BlackVolTermStructureEEptEv(ptr noundef nonnull align 8 dereferenceable(16) %blackTS_)
  %0 = load ptr, ptr %call, align 8, !tbaa !55
  %cmp.not.i = icmp eq ptr %0, null
  br i1 %cmp.not.i, label %cond.false.i, label %_ZNK5boost10shared_ptrIN8QuantLib21BlackVolTermStructureEEptEv.exit, !prof !57

cond.false.i:                                     ; preds = %entry
  tail call void @_ZN5boost16assertion_failedEPKcS1_S1_l(ptr noundef nonnull @.str.13, ptr noundef nonnull @__PRETTY_FUNCTION__._ZNK5boost10shared_ptrIN8QuantLib21BlackVolTermStructureEEptEv, ptr noundef nonnull @.str.14, i64 noundef 784)
  %.pre.i = load ptr, ptr %call, align 8, !tbaa !55
  br label %_ZNK5boost10shared_ptrIN8QuantLib21BlackVolTermStructureEEptEv.exit

_ZNK5boost10shared_ptrIN8QuantLib21BlackVolTermStructureEEptEv.exit: ; preds = %entry, %cond.false.i
  %1 = phi ptr [ %0, %entry ], [ %.pre.i, %cond.false.i ]
  %vtable = load ptr, ptr %1, align 8, !tbaa !28
  %vfn = getelementptr inbounds i8, ptr %vtable, i64 40
  %2 = load ptr, ptr %vfn, align 8
  %call3 = tail call noundef nonnull align 8 dereferenceable(8) ptr %2(ptr noundef nonnull align 8 dereferenceable(64) %1)
  ret ptr %call3
}